target datalayout = "e-m:e-p270:32:32-p271:32:32-p272:64:64-i64:64-i128:128-f80:128-n8:16:32:64-S128"
target triple = "x86_64-pc-linux-gnu"

; Function Attrs: nounwind uwtable
define dso_local i32 @bitncommon(ptr noundef %0, ptr noundef %1, i32 noundef %2) #0 {
  %4 = alloca ptr, align 8
  %5 = alloca ptr, align 8
  %6 = alloca i32, align 4
  %7 = alloca i32, align 4
  %8 = alloca i32, align 4
  %9 = alloca i32, align 4
  store ptr %0, ptr %4, align 8
  store ptr %1, ptr %5, align 8
  store i32 %2, ptr %6, align 4
  call void @llvm.lifetime.start.p0(i64 4, ptr %7) #8
  call void @llvm.lifetime.start.p0(i64 4, ptr %8) #8
  %10 = load i32, ptr %6, align 4
  %11 = srem i32 %10, 8
  store i32 %11, ptr %8, align 4
  store i32 0, ptr %7, align 4
  br label %12

12:                                               ; preds = %33, %3
  %13 = load i32, ptr %7, align 4
  %14 = load i32, ptr %6, align 4
  %15 = sdiv i32 %14, 8
  %16 = icmp slt i32 %13, %15
  br i1 %16, label %17, label %36

17:                                               ; preds = %12
  %18 = load ptr, ptr %4, align 8
  %19 = load i32, ptr %7, align 4
  %20 = sext i32 %19 to i64
  %21 = getelementptr inbounds i8, ptr %18, i64 %20
  %22 = load i8, ptr %21, align 1
  %23 = zext i8 %22 to i32
  %24 = load ptr, ptr %5, align 8
  %25 = load i32, ptr %7, align 4
  %26 = sext i32 %25 to i64
  %27 = getelementptr inbounds i8, ptr %24, i64 %26
  %28 = load i8, ptr %27, align 1
  %29 = zext i8 %28 to i32
  %30 = icmp ne i32 %23, %29
  br i1 %30, label %31, label %32

31:                                               ; preds = %17
  store i32 7, ptr %8, align 4
  br label %36

32:                                               ; preds = %17
  br label %33

33:                                               ; preds = %32
  %34 = load i32, ptr %7, align 4
  %35 = add i32 %34, 1
  store i32 %35, ptr %7, align 4
  br label %12, !llvm.loop !14

36:                                               ; preds = %31, %12
  %37 = load i32, ptr %8, align 4
  %38 = icmp ne i32 %37, 0
  br i1 %38, label %39, label %63

39:                                               ; preds = %36
  call void @llvm.lifetime.start.p0(i64 4, ptr %9) #8
  %40 = load ptr, ptr %4, align 8
  %41 = load i32, ptr %7, align 4
  %42 = sext i32 %41 to i64
  %43 = getelementptr inbounds i8, ptr %40, i64 %42
  %44 = load i8, ptr %43, align 1
  %45 = zext i8 %44 to i32
  %46 = load ptr, ptr %5, align 8
  %47 = load i32, ptr %7, align 4
  %48 = sext i32 %47 to i64
  %49 = getelementptr inbounds i8, ptr %46, i64 %48
  %50 = load i8, ptr %49, align 1
  %51 = zext i8 %50 to i32
  %52 = xor i32 %45, %51
  store i32 %52, ptr %9, align 4
  br label %53

53:                                               ; preds = %59, %39
  %54 = load i32, ptr %9, align 4
  %55 = load i32, ptr %8, align 4
  %56 = sub i32 8, %55
  %57 = lshr i32 %54, %56
  %58 = icmp ne i32 %57, 0
  br i1 %58, label %59, label %62

59:                                               ; preds = %53
  %60 = load i32, ptr %8, align 4
  %61 = add i32 %60, -1
  store i32 %61, ptr %8, align 4
  br label %53, !llvm.loop !15

62:                                               ; preds = %53
  call void @llvm.lifetime.end.p0(i64 4, ptr %9) #8
  br label %63

63:                                               ; preds = %62, %36
  %64 = load i32, ptr %7, align 4
  %65 = mul i32 8, %64
  %66 = load i32, ptr %8, align 4
  %67 = add i32 %65, %66
  call void @llvm.lifetime.end.p0(i64 4, ptr %8) #8
  call void @llvm.lifetime.end.p0(i64 4, ptr %7) #8
  ret i32 %67
}