; Function Attrs: nofree norecurse nosync nounwind memory(argmem: read) uwtable
define dso_local i32 @bitncommon(ptr noundef readonly captures(none) %0, ptr noundef readonly captures(none) %1, i32 noundef %2) local_unnamed_addr #7 {
  %4 = srem i32 %2, 8
  %5 = icmp sgt i32 %2, 7
  br i1 %5, label %.lr.ph.preheader, label %._crit_edge

.lr.ph.preheader:                                 ; preds = %3
  %6 = lshr i32 %2, 3
  %wide.trip.count = zext nneg i32 %6 to i64
  br label %.lr.ph

.lr.ph:                                           ; preds = %.lr.ph.preheader, %11
  %indvars.iv = phi i64 [ 0, %.lr.ph.preheader ], [ %indvars.iv.next, %11 ]
  %7 = getelementptr inbounds nuw i8, ptr %0, i64 %indvars.iv
  %8 = load i8, ptr %7, align 1
  %9 = getelementptr inbounds nuw i8, ptr %1, i64 %indvars.iv
  %10 = load i8, ptr %9, align 1
  %.not = icmp eq i8 %8, %10
  br i1 %.not, label %11, label %.thread.loopexit

11:                                               ; preds = %.lr.ph
  %indvars.iv.next = add nuw nsw i64 %indvars.iv, 1
  %exitcond.not = icmp eq i64 %indvars.iv.next, %wide.trip.count
  br i1 %exitcond.not, label %._crit_edge, label %.lr.ph, !llvm.loop !27

._crit_edge:                                      ; preds = %11, %3
  %.0.lcssa = phi i32 [ 0, %3 ], [ %6, %11 ]
  %.not18 = icmp eq i32 %4, 0
  br i1 %.not18, label %.loopexit, label %.thread

.thread.loopexit:                                 ; preds = %.lr.ph
  %12 = trunc nuw nsw i64 %indvars.iv to i32
  br label %.thread

.thread:                                          ; preds = %.thread.loopexit, %._crit_edge
  %.024 = phi i32 [ %.0.lcssa, %._crit_edge ], [ %12, %.thread.loopexit ]
  %.01722 = phi i32 [ %4, %._crit_edge ], [ 7, %.thread.loopexit ]
  %13 = zext nneg i32 %.024 to i64
  %14 = getelementptr inbounds nuw i8, ptr %0, i64 %13
  %15 = load i8, ptr %14, align 1
  %16 = getelementptr inbounds nuw i8, ptr %1, i64 %13
  %17 = load i8, ptr %16, align 1
  %18 = xor i8 %17, %15
  %19 = zext i8 %18 to i32
  br label %20

20:                                               ; preds = %20, %.thread
  %.2 = phi i32 [ %.01722, %.thread ], [ %23, %20 ]
  %21 = sub i32 8, %.2
  %22 = lshr i32 %19, %21
  %.not19 = icmp eq i32 %22, 0
  %23 = add i32 %.2, -1
  br i1 %.not19, label %.loopexit, label %20, !llvm.loop !28

.loopexit:                                        ; preds = %20, %._crit_edge
  %.025 = phi i32 [ %.0.lcssa, %._crit_edge ], [ %.024, %20 ]
  %.1 = phi i32 [ 0, %._crit_edge ], [ %.2, %20 ]
  %24 = shl i32 %.025, 3
  %25 = add i32 %.1, %24
  ret i32 %25
}